target datalayout = "e-m:e-p270:32:32-p271:32:32-p272:64:64-i64:64-i128:128-f80:128-n8:16:32:64-S128"
target triple = "x86_64-pc-linux-gnu"

%"struct.toku::range_buffer::record_header" = type { i8, i8, i8, i8, i16, i16, i8 }
%struct.__toku_dbt = type { ptr, i64, i64, i32 }
%"class.toku::range_buffer::iterator::record" = type { %"struct.toku::range_buffer::record_header", %struct.__toku_dbt, %struct.__toku_dbt }

; Function Attrs: mustprogress nounwind uwtable
define noundef zeroext i1 @_ZNK4toku12range_buffer13record_header17right_is_infiniteEv(ptr noundef nonnull align 2 dereferenceable(10) %0) #0 align 2 {
  %2 = alloca ptr, align 8
  store ptr %0, ptr %2, align 8, !tbaa !4
  %3 = load ptr, ptr %2, align 8
  %4 = getelementptr inbounds nuw %"struct.toku::range_buffer::record_header", ptr %3, i32 0, i32 3
  %5 = load i8, ptr %4, align 1, !tbaa !16, !range !13, !noundef !14
  %6 = trunc i8 %5 to i1
  br i1 %6, label %11, label %7

7:                                                ; preds = %1
  %8 = getelementptr inbounds nuw %"struct.toku::range_buffer::record_header", ptr %3, i32 0, i32 2
  %9 = load i8, ptr %8, align 2, !tbaa !17, !range !13, !noundef !14
  %10 = trunc i8 %9 to i1
  br label %11

11:                                               ; preds = %7, %1
  %12 = phi i1 [ true, %1 ], [ %10, %7 ]
  ret i1 %12
}

; Function Attrs: mustprogress nounwind uwtable
define noundef zeroext i1 @_ZNK4toku12range_buffer13record_header16left_is_infiniteEv(ptr noundef nonnull align 2 dereferenceable(10) %0) #0 align 2 {
  %2 = alloca ptr, align 8
  store ptr %0, ptr %2, align 8, !tbaa !4
  %3 = load ptr, ptr %2, align 8
  %4 = getelementptr inbounds nuw %"struct.toku::range_buffer::record_header", ptr %3, i32 0, i32 0
  %5 = load i8, ptr %4, align 2, !tbaa !9, !range !13, !noundef !14
  %6 = trunc i8 %5 to i1
  br i1 %6, label %11, label %7

7:                                                ; preds = %1
  %8 = getelementptr inbounds nuw %"struct.toku::range_buffer::record_header", ptr %3, i32 0, i32 1
  %9 = load i8, ptr %8, align 1, !tbaa !15, !range !13, !noundef !14
  %10 = trunc i8 %9 to i1
  br label %11

11:                                               ; preds = %7, %1
  %12 = phi i1 [ true, %1 ], [ %10, %7 ]
  ret i1 %12
}

; Function Attrs: mustprogress uwtable
define void @_ZN4toku12range_buffer8iterator6record11deserializeEPKc(ptr noundef nonnull align 8 dereferenceable(80) %0, ptr noundef %1) #1 align 2 {
  %3 = alloca ptr, align 8
  %4 = alloca ptr, align 8
  %5 = alloca i64, align 8
  %6 = alloca %struct.__toku_dbt, align 8
  store ptr %0, ptr %3, align 8, !tbaa !28
  store ptr %1, ptr %4, align 8, !tbaa !37
  %7 = load ptr, ptr %3, align 8
  call void @llvm.lifetime.start.p0(i64 8, ptr %5) #5
  store i64 0, ptr %5, align 8, !tbaa !39
  %8 = getelementptr inbounds nuw %"class.toku::range_buffer::iterator::record", ptr %7, i32 0, i32 0
  %9 = load ptr, ptr %4, align 8, !tbaa !37
  call void @llvm.memcpy.p0.p0.i64(ptr align 8 %8, ptr align 1 %9, i64 10, i1 false)
  %10 = load i64, ptr %5, align 8, !tbaa !39
  %11 = add i64 %10, 10
  store i64 %11, ptr %5, align 8, !tbaa !39
  %12 = getelementptr inbounds nuw %"class.toku::range_buffer::iterator::record", ptr %7, i32 0, i32 0
  %13 = call noundef zeroext i1 @_ZNK4toku12range_buffer13record_header16left_is_infiniteEv(ptr noundef nonnull align 2 dereferenceable(10) %12)
  br i1 %13, label %30, label %14

14:                                               ; preds = %2
  %15 = getelementptr inbounds nuw %"class.toku::range_buffer::iterator::record", ptr %7, i32 0, i32 1
  %16 = load ptr, ptr %4, align 8, !tbaa !37
  %17 = load i64, ptr %5, align 8, !tbaa !39
  %18 = getelementptr inbounds nuw i8, ptr %16, i64 %17
  %19 = getelementptr inbounds nuw %"class.toku::range_buffer::iterator::record", ptr %7, i32 0, i32 0
  %20 = getelementptr inbounds nuw %"struct.toku::range_buffer::record_header", ptr %19, i32 0, i32 4
  %21 = load i16, ptr %20, align 4, !tbaa !35
  %22 = zext i16 %21 to i64
  %23 = call noundef ptr @_Z13toku_fill_dbtP10__toku_dbtPKvm(ptr noundef %15, ptr noundef %18, i64 noundef %22)
  %24 = getelementptr inbounds nuw %"class.toku::range_buffer::iterator::record", ptr %7, i32 0, i32 0
  %25 = getelementptr inbounds nuw %"struct.toku::range_buffer::record_header", ptr %24, i32 0, i32 4
  %26 = load i16, ptr %25, align 4, !tbaa !35
  %27 = zext i16 %26 to i64
  %28 = load i64, ptr %5, align 8, !tbaa !39
  %29 = add i64 %28, %27
  store i64 %29, ptr %5, align 8, !tbaa !39
  br label %30

30:                                               ; preds = %14, %2
  %31 = getelementptr inbounds nuw %"class.toku::range_buffer::iterator::record", ptr %7, i32 0, i32 0
  %32 = call noundef zeroext i1 @_ZNK4toku12range_buffer13record_header17right_is_infiniteEv(ptr noundef nonnull align 2 dereferenceable(10) %31)
  br i1 %32, label %54, label %33

33:                                               ; preds = %30
  %34 = getelementptr inbounds nuw %"class.toku::range_buffer::iterator::record", ptr %7, i32 0, i32 0
  %35 = getelementptr inbounds nuw %"struct.toku::range_buffer::record_header", ptr %34, i32 0, i32 5
  %36 = load i16, ptr %35, align 2, !tbaa !36
  %37 = zext i16 %36 to i32
  %38 = icmp eq i32 %37, 0
  br i1 %38, label %39, label %43

39:                                               ; preds = %33
  %40 = getelementptr inbounds nuw %"class.toku::range_buffer::iterator::record", ptr %7, i32 0, i32 2
  %41 = getelementptr inbounds nuw %"class.toku::range_buffer::iterator::record", ptr %7, i32 0, i32 1
  call void @llvm.memcpy.p0.p0.i64(ptr align 8 %6, ptr align 8 %41, i64 32, i1 false), !tbaa.struct !40
  %42 = call noundef ptr @_Z16toku_copyref_dbtP10__toku_dbtS_(ptr noundef %40, ptr noundef byval(%struct.__toku_dbt) align 8 %6)
  br label %53

43:                                               ; preds = %33
  %44 = getelementptr inbounds nuw %"class.toku::range_buffer::iterator::record", ptr %7, i32 0, i32 2
  %45 = load ptr, ptr %4, align 8, !tbaa !37
  %46 = load i64, ptr %5, align 8, !tbaa !39
  %47 = getelementptr inbounds nuw i8, ptr %45, i64 %46
  %48 = getelementptr inbounds nuw %"class.toku::range_buffer::iterator::record", ptr %7, i32 0, i32 0
  %49 = getelementptr inbounds nuw %"struct.toku::range_buffer::record_header", ptr %48, i32 0, i32 5
  %50 = load i16, ptr %49, align 2, !tbaa !36
  %51 = zext i16 %50 to i64
  %52 = call noundef ptr @_Z13toku_fill_dbtP10__toku_dbtPKvm(ptr noundef %44, ptr noundef %47, i64 noundef %51)
  br label %53

53:                                               ; preds = %43, %39
  br label %54

54:                                               ; preds = %53, %30
  call void @llvm.lifetime.end.p0(i64 8, ptr %5) #5
  ret void
}