; Function Attrs: mustprogress uwtable
define void @_ZN4toku12range_buffer8iterator6record11deserializeEPKc(ptr noundef nonnull align 8 dereferenceable(80) initializes((0, 10)) %0, ptr noundef %1) local_unnamed_addr #1 align 2 {
  tail call void @llvm.memcpy.p0.p0.i64(ptr noundef nonnull align 8 dereferenceable(10) %0, ptr noundef nonnull align 1 dereferenceable(10) %1, i64 10, i1 false)
  %3 = load i8, ptr %0, align 8, !tbaa !4, !range !10, !noundef !11
  %4 = trunc nuw i8 %3 to i1
  %5 = getelementptr inbounds nuw i8, ptr %0, i64 1
  %6 = load i8, ptr %5, align 1, !range !10
  %7 = trunc nuw i8 %6 to i1
  %8 = select i1 %4, i1 true, i1 %7
  br i1 %8, label %19, label %9

9:                                                ; preds = %2
  %10 = getelementptr inbounds nuw i8, ptr %0, i64 16
  %11 = getelementptr inbounds nuw i8, ptr %1, i64 10
  %12 = getelementptr inbounds nuw i8, ptr %0, i64 4
  %13 = load i16, ptr %12, align 4, !tbaa !28
  %14 = zext i16 %13 to i64
  %15 = tail call noundef ptr @_Z13toku_fill_dbtP10__toku_dbtPKvm(ptr noundef nonnull %10, ptr noundef nonnull %11, i64 noundef %14)
  %16 = load i16, ptr %12, align 4, !tbaa !28
  %17 = zext i16 %16 to i64
  %18 = add nuw nsw i64 %17, 10
  br label %19

19:                                               ; preds = %9, %2
  %.0 = phi i64 [ 10, %2 ], [ %18, %9 ]
  %20 = getelementptr inbounds nuw i8, ptr %0, i64 3
  %21 = load i8, ptr %20, align 1, !tbaa !12, !range !10, !noundef !11
  %22 = trunc nuw i8 %21 to i1
  %23 = getelementptr inbounds nuw i8, ptr %0, i64 2
  %24 = load i8, ptr %23, align 2, !range !10
  %25 = trunc nuw i8 %24 to i1
  %26 = select i1 %22, i1 true, i1 %25
  br i1 %26, label %39, label %27

27:                                               ; preds = %19
  %28 = getelementptr inbounds nuw i8, ptr %0, i64 6
  %29 = load i16, ptr %28, align 2, !tbaa !29
  %30 = icmp eq i16 %29, 0
  %31 = getelementptr inbounds nuw i8, ptr %0, i64 48
  br i1 %30, label %32, label %35

32:                                               ; preds = %27
  %33 = getelementptr inbounds nuw i8, ptr %0, i64 16
  %34 = tail call noundef ptr @_Z16toku_copyref_dbtP10__toku_dbtS_(ptr noundef nonnull %31, ptr noundef nonnull byval(%struct.__toku_dbt) align 8 %33)
  br label %39

35:                                               ; preds = %27
  %36 = getelementptr inbounds nuw i8, ptr %1, i64 %.0
  %37 = zext i16 %29 to i64
  %38 = tail call noundef ptr @_Z13toku_fill_dbtP10__toku_dbtPKvm(ptr noundef nonnull %31, ptr noundef nonnull %36, i64 noundef %37)
  br label %39

39:                                               ; preds = %32, %35, %19
  ret void
}